; Function Attrs: nounwind uwtable
define i32 @pmix_hwloc_unpack_cpuset(ptr noundef %0, ptr noundef writeonly captures(none) %1, ptr noundef %2) local_unnamed_addr #0 {
  %4 = alloca i32, align 4
  %5 = alloca ptr, align 8
  call void @llvm.lifetime.start.p0(i64 4, ptr nonnull %4) #7
  call void @llvm.lifetime.start.p0(i64 8, ptr nonnull %5) #7
  store i32 1, ptr %4, align 4, !tbaa !24
  %6 = getelementptr inbounds nuw i8, ptr %2, i64 128
  %7 = load i32, ptr %6, align 8, !tbaa !8
  %.not.i = icmp sgt i32 %7, 3
  br i1 %.not.i, label %pmix_pointer_array_get_item.exit, label %.thread, !prof !15

pmix_pointer_array_get_item.exit:                 ; preds = %3
  %8 = getelementptr inbounds nuw i8, ptr %2, i64 152
  %9 = load ptr, ptr %8, align 8, !tbaa !16
  %10 = getelementptr inbounds nuw i8, ptr %9, i64 24
  %11 = load ptr, ptr %10, align 8, !tbaa !17
  %12 = icmp eq ptr %11, null
  br i1 %12, label %.thread, label %13

13:                                               ; preds = %pmix_pointer_array_get_item.exit
  %14 = getelementptr inbounds nuw i8, ptr %11, i64 144
  %15 = load ptr, ptr %14, align 8, !tbaa !25
  %16 = call i32 %15(ptr noundef nonnull %2, ptr noundef %0, ptr noundef nonnull %5, ptr noundef nonnull %4, i16 noundef zeroext 3) #7
  %.not = icmp eq i32 %16, 0
  br i1 %.not, label %17, label %.thread

17:                                               ; preds = %13
  %18 = load ptr, ptr %5, align 8, !tbaa !3
  %19 = icmp eq ptr %18, null
  br i1 %19, label %20, label %22

20:                                               ; preds = %17
  %21 = getelementptr inbounds nuw i8, ptr %1, i64 8
  store ptr null, ptr %21, align 8, !tbaa !23
  br label %28

22:                                               ; preds = %17
  %23 = call noalias ptr @hwloc_bitmap_alloc() #7
  %24 = getelementptr inbounds nuw i8, ptr %1, i64 8
  store ptr %23, ptr %24, align 8, !tbaa !23
  %25 = load ptr, ptr %5, align 8, !tbaa !3
  %26 = call i32 @hwloc_bitmap_list_sscanf(ptr noundef %23, ptr noundef %25) #7
  %27 = load ptr, ptr %5, align 8, !tbaa !3
  call void @free(ptr noundef %27) #7
  br label %28

28:                                               ; preds = %22, %20
  %29 = call noalias dereferenceable_or_null(6) ptr @strdup(ptr noundef nonnull @.str) #7
  store ptr %29, ptr %1, align 8, !tbaa !21
  br label %.thread

.thread:                                          ; preds = %3, %pmix_pointer_array_get_item.exit, %13, %28
  %.0 = phi i32 [ 0, %28 ], [ %16, %13 ], [ -16, %pmix_pointer_array_get_item.exit ], [ -16, %3 ]
  call void @llvm.lifetime.end.p0(i64 8, ptr nonnull %5) #7
  call void @llvm.lifetime.end.p0(i64 4, ptr nonnull %4) #7
  ret i32 %.0
}